target datalayout = "e-m:e-p270:32:32-p271:32:32-p272:64:64-i64:64-i128:128-f80:128-n8:16:32:64-S128"
target triple = "x86_64-unknown-linux-gnu"

%"class.pugi::xpath_variable_set" = type { [64 x ptr] }

@_ZN4pugi18xpath_variable_setC1Ev = unnamed_addr alias void (ptr), ptr @_ZN4pugi18xpath_variable_setC2Ev
@_ZN4pugi18xpath_variable_setD1Ev = unnamed_addr alias void (ptr), ptr @_ZN4pugi18xpath_variable_setD2Ev

; Function Attrs: mustprogress nounwind uwtable
define void @_ZN4pugi18xpath_variable_set5_swapERS0_(ptr noundef nonnull align 8 dereferenceable(512) %this, ptr noundef nonnull align 8 dereferenceable(512) %rhs) #0 align 2 {
entry:
  %this.addr = alloca ptr, align 8
  %rhs.addr = alloca ptr, align 8
  %i = alloca i64, align 8
  %chain = alloca ptr, align 8
  store ptr %this, ptr %this.addr, align 8
  store ptr %rhs, ptr %rhs.addr, align 8
  %this1 = load ptr, ptr %this.addr, align 8
  store i64 0, ptr %i, align 8
  br label %for.cond

for.cond:                                         ; preds = %for.inc, %entry
  %0 = load i64, ptr %i, align 8
  %cmp = icmp ult i64 %0, 64
  br i1 %cmp, label %for.body, label %for.end

for.body:                                         ; preds = %for.cond
  %_data = getelementptr inbounds %"class.pugi::xpath_variable_set", ptr %this1, i32 0, i32 0
  %1 = load i64, ptr %i, align 8
  %arrayidx = getelementptr inbounds [64 x ptr], ptr %_data, i64 0, i64 %1
  %2 = load ptr, ptr %arrayidx, align 8
  store ptr %2, ptr %chain, align 8
  %3 = load ptr, ptr %rhs.addr, align 8
  %_data2 = getelementptr inbounds %"class.pugi::xpath_variable_set", ptr %3, i32 0, i32 0
  %4 = load i64, ptr %i, align 8
  %arrayidx3 = getelementptr inbounds [64 x ptr], ptr %_data2, i64 0, i64 %4
  %5 = load ptr, ptr %arrayidx3, align 8
  %_data4 = getelementptr inbounds %"class.pugi::xpath_variable_set", ptr %this1, i32 0, i32 0
  %6 = load i64, ptr %i, align 8
  %arrayidx5 = getelementptr inbounds [64 x ptr], ptr %_data4, i64 0, i64 %6
  store ptr %5, ptr %arrayidx5, align 8
  %7 = load ptr, ptr %chain, align 8
  %8 = load ptr, ptr %rhs.addr, align 8
  %_data6 = getelementptr inbounds %"class.pugi::xpath_variable_set", ptr %8, i32 0, i32 0
  %9 = load i64, ptr %i, align 8
  %arrayidx7 = getelementptr inbounds [64 x ptr], ptr %_data6, i64 0, i64 %9
  store ptr %7, ptr %arrayidx7, align 8
  br label %for.inc

for.inc:                                          ; preds = %for.body
  %10 = load i64, ptr %i, align 8
  %inc = add i64 %10, 1
  store i64 %inc, ptr %i, align 8
  br label %for.cond, !llvm.loop !53

for.end:                                          ; preds = %for.cond
  ret void
}

; Function Attrs: mustprogress uwtable
define void @_ZN4pugi18xpath_variable_set7_assignERKS0_(ptr noundef nonnull align 8 dereferenceable(512) %this, ptr noundef nonnull align 8 dereferenceable(512) %rhs) #2 align 2 personality ptr @__gxx_personality_v0 {
entry:
  %this.addr = alloca ptr, align 8
  %rhs.addr = alloca ptr, align 8
  %temp = alloca %"class.pugi::xpath_variable_set", align 8
  %i = alloca i64, align 8
  %exn.slot = alloca ptr, align 8
  %ehselector.slot = alloca i32, align 4
  %cleanup.dest.slot = alloca i32, align 4
  store ptr %this, ptr %this.addr, align 8
  store ptr %rhs, ptr %rhs.addr, align 8
  %this1 = load ptr, ptr %this.addr, align 8
  call void @_ZN4pugi18xpath_variable_setC1Ev(ptr noundef nonnull align 8 dereferenceable(512) %temp)
  store i64 0, ptr %i, align 8
  br label %for.cond

for.cond:                                         ; preds = %for.inc, %entry
  %0 = load i64, ptr %i, align 8
  %cmp = icmp ult i64 %0, 64
  br i1 %cmp, label %for.body, label %for.end

for.body:                                         ; preds = %for.cond
  %1 = load ptr, ptr %rhs.addr, align 8
  %_data = getelementptr inbounds %"class.pugi::xpath_variable_set", ptr %1, i32 0, i32 0
  %2 = load i64, ptr %i, align 8
  %arrayidx = getelementptr inbounds [64 x ptr], ptr %_data, i64 0, i64 %2
  %3 = load ptr, ptr %arrayidx, align 8
  %tobool = icmp ne ptr %3, null
  br i1 %tobool, label %land.lhs.true, label %if.end

land.lhs.true:                                    ; preds = %for.body
  %4 = load ptr, ptr %rhs.addr, align 8
  %_data2 = getelementptr inbounds %"class.pugi::xpath_variable_set", ptr %4, i32 0, i32 0
  %5 = load i64, ptr %i, align 8
  %arrayidx3 = getelementptr inbounds [64 x ptr], ptr %_data2, i64 0, i64 %5
  %6 = load ptr, ptr %arrayidx3, align 8
  %_data4 = getelementptr inbounds %"class.pugi::xpath_variable_set", ptr %temp, i32 0, i32 0
  %7 = load i64, ptr %i, align 8
  %arrayidx5 = getelementptr inbounds [64 x ptr], ptr %_data4, i64 0, i64 %7
  %call = invoke noundef zeroext i1 @_ZN4pugi18xpath_variable_set6_cloneEPNS_14xpath_variableEPS2_(ptr noundef %6, ptr noundef %arrayidx5)
          to label %invoke.cont unwind label %lpad

invoke.cont:                                      ; preds = %land.lhs.true
  br i1 %call, label %if.end, label %if.then

if.then:                                          ; preds = %invoke.cont
  store i32 1, ptr %cleanup.dest.slot, align 4
  br label %cleanup

lpad:                                             ; preds = %for.end, %land.lhs.true
  %8 = landingpad { ptr, i32 }
          cleanup
  %9 = extractvalue { ptr, i32 } %8, 0
  store ptr %9, ptr %exn.slot, align 8
  %10 = extractvalue { ptr, i32 } %8, 1
  store i32 %10, ptr %ehselector.slot, align 4
  call void @_ZN4pugi18xpath_variable_setD1Ev(ptr noundef nonnull align 8 dereferenceable(512) %temp) #9
  br label %eh.resume

if.end:                                           ; preds = %invoke.cont, %for.body
  br label %for.inc

for.inc:                                          ; preds = %if.end
  %11 = load i64, ptr %i, align 8
  %inc = add i64 %11, 1
  store i64 %inc, ptr %i, align 8
  br label %for.cond, !llvm.loop !49

for.end:                                          ; preds = %for.cond
  invoke void @_ZN4pugi18xpath_variable_set5_swapERS0_(ptr noundef nonnull align 8 dereferenceable(512) %this1, ptr noundef nonnull align 8 dereferenceable(512) %temp)
          to label %invoke.cont6 unwind label %lpad

invoke.cont6:                                     ; preds = %for.end
  store i32 0, ptr %cleanup.dest.slot, align 4
  br label %cleanup

cleanup:                                          ; preds = %invoke.cont6, %if.then
  call void @_ZN4pugi18xpath_variable_setD1Ev(ptr noundef nonnull align 8 dereferenceable(512) %temp) #9
  %cleanup.dest = load i32, ptr %cleanup.dest.slot, align 4
  switch i32 %cleanup.dest, label %unreachable [
    i32 0, label %cleanup.cont
    i32 1, label %cleanup.cont
  ]

cleanup.cont:                                     ; preds = %cleanup, %cleanup
  ret void

eh.resume:                                        ; preds = %lpad
  %exn = load ptr, ptr %exn.slot, align 8
  %sel = load i32, ptr %ehselector.slot, align 4
  %lpad.val = insertvalue { ptr, i32 } poison, ptr %exn, 0
  %lpad.val7 = insertvalue { ptr, i32 } %lpad.val, i32 %sel, 1
  resume { ptr, i32 } %lpad.val7

unreachable:                                      ; preds = %cleanup
  unreachable
}

; Function Attrs: mustprogress uwtable
define noundef nonnull align 8 dereferenceable(512) ptr @_ZN4pugi18xpath_variable_setaSERKS0_(ptr noundef nonnull align 8 dereferenceable(512) %this, ptr noundef nonnull align 8 dereferenceable(512) %rhs) #2 align 2 {
entry:
  %retval = alloca ptr, align 8
  %this.addr = alloca ptr, align 8
  %rhs.addr = alloca ptr, align 8
  store ptr %this, ptr %this.addr, align 8
  store ptr %rhs, ptr %rhs.addr, align 8
  %this1 = load ptr, ptr %this.addr, align 8
  %0 = load ptr, ptr %rhs.addr, align 8
  %cmp = icmp eq ptr %this1, %0
  br i1 %cmp, label %if.then, label %if.end

if.then:                                          ; preds = %entry
  store ptr %this1, ptr %retval, align 8
  br label %return

if.end:                                           ; preds = %entry
  %1 = load ptr, ptr %rhs.addr, align 8
  call void @_ZN4pugi18xpath_variable_set7_assignERKS0_(ptr noundef nonnull align 8 dereferenceable(512) %this1, ptr noundef nonnull align 8 dereferenceable(512) %1)
  store ptr %this1, ptr %retval, align 8
  br label %return

return:                                           ; preds = %if.end, %if.then
  %2 = load ptr, ptr %retval, align 8
  ret ptr %2
}