; Function Attrs: mustprogress uwtable
define noundef nonnull align 8 dereferenceable(512) ptr @_ZN4pugi18xpath_variable_setaSERKS0_(ptr noundef nonnull returned align 8 dereferenceable(512) %this, ptr noundef nonnull readonly align 8 dereferenceable(512) %rhs) local_unnamed_addr #6 align 2 personality ptr @__gxx_personality_v0 {
entry:
  %temp.i = alloca %"class.pugi::xpath_variable_set", align 8
  %cmp = icmp eq ptr %this, %rhs
  br i1 %cmp, label %return, label %if.end

if.end:                                           ; preds = %entry
  call void @llvm.lifetime.start.p0(i64 512, ptr nonnull %temp.i)
  call void @_ZN4pugi18xpath_variable_setC1Ev(ptr noundef nonnull align 8 dereferenceable(512) %temp.i)
  br label %for.body.i

for.body.i:                                       ; preds = %for.inc.i, %if.end
  %i.07.i = phi i64 [ 0, %if.end ], [ %inc.i, %for.inc.i ]
  %arrayidx.i = getelementptr inbounds [64 x ptr], ptr %rhs, i64 0, i64 %i.07.i
  %0 = load ptr, ptr %arrayidx.i, align 8
  %tobool.not.i = icmp eq ptr %0, null
  br i1 %tobool.not.i, label %for.inc.i, label %land.lhs.true.i

land.lhs.true.i:                                  ; preds = %for.body.i
  %arrayidx5.i = getelementptr inbounds [64 x ptr], ptr %temp.i, i64 0, i64 %i.07.i
  %call.i = invoke noundef zeroext i1 @_ZN4pugi18xpath_variable_set6_cloneEPNS_14xpath_variableEPS2_(ptr noundef nonnull %0, ptr noundef nonnull %arrayidx5.i)
          to label %invoke.cont.i unwind label %lpad.i

invoke.cont.i:                                    ; preds = %land.lhs.true.i
  br i1 %call.i, label %for.inc.i, label %_ZN4pugi18xpath_variable_set7_assignERKS0_.exit

lpad.i:                                           ; preds = %land.lhs.true.i
  %1 = landingpad { ptr, i32 }
          cleanup
  call void @_ZN4pugi18xpath_variable_setD1Ev(ptr noundef nonnull align 8 dereferenceable(512) %temp.i) #42
  resume { ptr, i32 } %1

for.inc.i:                                        ; preds = %invoke.cont.i, %for.body.i
  %inc.i = add nuw nsw i64 %i.07.i, 1
  %exitcond.not.i = icmp eq i64 %inc.i, 64
  br i1 %exitcond.not.i, label %for.body.i.i, label %for.body.i, !llvm.loop !163

for.body.i.i:                                     ; preds = %for.inc.i, %for.body.i.i
  %i.07.i.i = phi i64 [ %inc.i.i, %for.body.i.i ], [ 0, %for.inc.i ]
  %arrayidx.i.i = getelementptr inbounds [64 x ptr], ptr %this, i64 0, i64 %i.07.i.i
  %2 = load ptr, ptr %arrayidx.i.i, align 8
  %arrayidx3.i.i = getelementptr inbounds [64 x ptr], ptr %temp.i, i64 0, i64 %i.07.i.i
  %3 = load ptr, ptr %arrayidx3.i.i, align 8
  store ptr %3, ptr %arrayidx.i.i, align 8
  store ptr %2, ptr %arrayidx3.i.i, align 8
  %inc.i.i = add nuw nsw i64 %i.07.i.i, 1
  %exitcond.not.i.i = icmp eq i64 %inc.i.i, 64
  br i1 %exitcond.not.i.i, label %_ZN4pugi18xpath_variable_set7_assignERKS0_.exit, label %for.body.i.i, !llvm.loop !164

_ZN4pugi18xpath_variable_set7_assignERKS0_.exit:  ; preds = %invoke.cont.i, %for.body.i.i
  call void @_ZN4pugi18xpath_variable_setD1Ev(ptr noundef nonnull align 8 dereferenceable(512) %temp.i) #42
  call void @llvm.lifetime.end.p0(i64 512, ptr nonnull %temp.i)
  br label %return

return:                                           ; preds = %entry, %_ZN4pugi18xpath_variable_set7_assignERKS0_.exit
  ret ptr %this
}